Certificate:
    Data:
        Version: 3 (0x2)
        Serial Number: 13135752980835096419 (0xb64b91bd67f45763)
    Signature Algorithm: sha256WithRSAEncryption
        Issuer: CN=Monaca
        Validity
            Not Before: Aug 26 03:25:29 2014 GMT
            Not After : Aug 25 03:25:29 2017 GMT
        Subject: CN=monaca-debug-app
        Subject Public Key Info:
            Public Key Algorithm: rsaEncryption
                Public-Key: (2048 bit)
                Modulus:
                    00:b0:d7:03:a1:c7:8f:13:ff:7f:83:ad:73:d1:cd:
                    b8:c8:9f:c5:5a:fb:33:d5:b3:3c:c7:2a:2d:e4:81:
                    76:af:f4:71:5e:dd:01:1d:04:4f:05:47:18:b8:08:
                    26:cd:6a:64:c4:42:22:4c:9b:90:48:d0:15:b6:d5:
                    27:2c:ce:88:3b:a0:03:cf:6c:06:d4:96:f3:f5:44:
                    3c:2c:f1:6e:0d:9c:ec:9b:ff:47:43:68:98:4f:d5:
                    57:16:07:5e:75:17:4e:4d:e1:a3:79:2f:03:4f:1f:
                    65:ca:26:5b:35:87:d1:e5:eb:97:bd:76:93:26:8a:
                    81:cd:92:f3:1e:17:75:16:eb:45:cb:67:cb:f8:63:
                    9a:cd:c6:6b:ea:a7:6d:c9:68:77:6b:65:ff:1f:bb:
                    63:48:86:8e:c2:df:05:cd:b3:a7:39:1f:86:34:44:
                    b6:15:8a:b7:8b:83:59:f5:6a:08:eb:30:26:18:51:
                    f6:5c:32:22:ae:d3:ef:8d:5b:4b:76:db:ad:a1:d1:
                    11:8a:73:0d:eb:40:a0:9d:0f:9c:74:b9:77:fc:ab:
                    38:48:9f:91:83:53:b4:92:98:f9:bd:30:2d:b3:20:
                    9c:d4:ae:ba:a8:37:ef:0a:fb:c2:89:4b:76:dc:af:
                    ac:3b:2b:ee:bc:70:34:a5:3d:3c:7e:e0:f1:85:9d:
                    0d:19
                Exponent: 65537 (0x10001)
        X509v3 extensions:
            X509v3 Basic Constraints: 
                CA:FALSE
            Netscape Comment: 
                OpenSSL Generated Certificate
            X509v3 Subject Key Identifier: 
                CB:81:90:C5:84:A7:D9:F8:58:B0:D8:75:6A:4D:82:63:BD:0B:A6:C2
            X509v3 Authority Key Identifier: 
                keyid:E1:C2:82:2D:04:9F:BC:50:9C:53:B3:61:5B:6D:6F:70:F6:CA:4F:01

            X509v3 Extended Key Usage: 
                Code Signing
    Signature Algorithm: sha256WithRSAEncryption
         bd:bb:a1:1a:0f:c8:4f:82:e8:83:ff:58:f5:14:d0:98:4d:98:
         57:c1:24:4e:b7:69:26:53:50:26:2b:16:20:de:18:c4:bf:89:
         38:05:d2:09:ba:43:3b:6d:f6:c4:48:24:e1:64:6b:60:2e:b7:
         d9:93:f3:a4:59:bf:9f:18:9c:c2:38:83:d3:df:79:a7:d2:38:
         0f:48:aa:e2:1c:07:af:eb:99:b0:48:7a:3e:74:c1:a2:33:46:
         5e:61:20:3f:be:09:47:0a:eb:d0:e4:f5:09:56:c4:66:3d:72:
         e0:f7:c1:53:5e:29:cf:10:65:00:99:41:0d:1a:49:17:9d:99:
         24:81:eb:42:fb:73:4b:e7:9c:f8:68:1e:ab:27:01:bb:18:da:
         39:77:b6:23:c8:48:c1:03:ca:66:fa:ae:69:75:85:59:63:50:
         63:34:a1:7a:a5:4b:83:1e:8d:3f:9b:97:33:47:d2:8c:a3:13:
         e6:f3:00:15:c5:72:a9:a5:5d:8e:39:ad:3b:be:b9:55:7d:b5:
         27:b9:7d:e7:5b:68:d8:14:27:aa:1a:e3:89:fa:55:60:f2:3a:
         9c:6a:f1:90:d7:f1:dd:65:b1:eb:6f:56:e7:7f:9c:21:e1:b9:
         ce:68:6c:8b:bf:bf:0d:4e:c9:38:f3:74:60:83:79:1b:85:de:
         84:87:a8:36
-----BEGIN CERTIFICATE-----
MIIDQTCCAimgAwIBAgIJALZLkb1n9FdjMA0GCSqGSIb3DQEBCwUAMBExDzANBgNV
BAMTBk1vbmFjYTAeFw0xNDA4MjYwMzI1MjlaFw0xNzA4MjUwMzI1MjlaMBsxGTAX
BgNVBAMTEG1vbmFjYS1kZWJ1Zy1hcHAwggEiMA0GCSqGSIb3DQEBAQUAA4IBDwAw
ggEKAoIBAQCw1wOhx48T/3+DrXPRzbjIn8Va+zPVszzHKi3kgXav9HFe3QEdBE8F
Rxi4CCbNamTEQiJMm5BI0BW21Scszog7oAPPbAbUlvP1RDws8W4NnOyb/0dDaJhP
1VcWB151F05N4aN5LwNPH2XKJls1h9Hl65e9dpMmioHNkvMeF3UW60XLZ8v4Y5rN
xmvqp23JaHdrZf8fu2NIho7C3wXNs6c5H4Y0RLYVireLg1n1agjrMCYYUfZcMiKu
0++NW0t2262h0RGKcw3rQKCdD5x0uXf8qzhIn5GDU7SSmPm9MC2zIJzUrrqoN+8K
+8KJS3bcr6w7K+68cDSlPTx+4PGFnQ0ZAgMBAAGjgZEwgY4wCQYDVR0TBAIwADAs
BglghkgBhvhCAQ0EHxYdT3BlblNTTCBHZW5lcmF0ZWQgQ2VydGlmaWNhdGUwHQYD
VR0OBBYEFMuBkMWEp9n4WLDYdWpNgmO9C6bCMB8GA1UdIwQYMBaAFOHCgi0En7xQ
nFOzYVttb3D2yk8BMBMGA1UdJQQMMAoGCCsGAQUFBwMDMA0GCSqGSIb3DQEBCwUA
A4IBAQC9u6EaD8hPguiD/1j1FNCYTZhXwSROt2kmU1AmKxYg3hjEv4k4BdIJukM7
bfbESCThZGtgLrfZk/OkWb+fGJzCOIPT33mn0jgPSKriHAev65mwSHo+dMGiM0Ze
YSA/vglHCuvQ5PUJVsRmPXLg98FTXinPEGUAmUENGkkXnZkkgetC+3NL55z4aB6r
JwG7GNo5d7YjyEjBA8pm+q5pdYVZY1BjNKF6pUuDHo0/m5czR9KMoxPm8wAVxXKp
pV2OOa07vrlVfbUnuX3nW2jYFCeqGuOJ+lVg8jqcavGQ1/HdZbHrb1bnf5wh4bnO
aGyLv78NTsk483Rgg3kbhd6Eh6g2
-----END CERTIFICATE-----
